Certificate:
    Data:
        Version: 3 (0x2)
        Serial Number: 2 (0x2)
    Signature Algorithm: sha256WithRSAEncryption
        Issuer: CN=Easy-RSA CA
        Validity
            Not Before: May 21 15:23:18 2014 GMT
            Not After : May 18 15:23:18 2024 GMT
        Subject: CN=server
        Subject Public Key Info:
            Public Key Algorithm: rsaEncryption
                Public-Key: (2048 bit)
                Modulus:
                    00:c1:fb:92:b5:f4:a7:04:a0:cc:94:9d:31:83:6b:
                    98:ba:1c:3e:7c:4e:b7:e3:30:91:16:cd:59:f6:54:
                    38:4d:9d:8a:bc:02:30:19:c0:41:c2:4d:25:d5:d9:
                    46:89:71:21:fb:e5:74:7f:70:b6:d3:fd:f4:95:f0:
                    32:89:cb:4a:54:00:4a:d1:f6:91:5a:3c:e4:21:0c:
                    c4:76:18:45:10:41:2a:aa:9a:0d:0b:6b:01:e2:50:
                    3f:f9:73:d4:af:20:02:43:c0:6d:b9:c9:b8:e0:c9:
                    6f:86:0d:1a:7c:e2:5d:4e:4e:00:96:ee:9d:31:92:
                    36:5a:f1:bd:a2:36:f5:3d:4b:92:c0:01:20:6e:ce:
                    0c:cd:5d:01:16:08:1f:e4:28:cc:5d:32:7c:d8:5e:
                    bb:38:c1:0f:94:b7:e5:12:6b:73:c0:a0:2d:f3:f5:
                    94:74:8b:24:78:1c:c5:53:f0:a2:71:a7:80:42:1d:
                    a3:fe:7f:58:c8:ba:62:4a:08:ca:1b:73:6a:46:04:
                    f6:2f:ae:3f:37:6e:3c:00:4a:cf:b5:78:9f:3b:db:
                    06:68:b6:54:c6:0f:30:94:53:be:0d:51:4c:eb:e3:
                    a2:b0:46:45:29:b0:92:e8:cb:2a:19:16:e6:a1:00:
                    d3:4b:2a:25:32:43:1f:96:6d:05:2c:8b:81:07:f9:
                    8b:3b
                Exponent: 65537 (0x10001)
        X509v3 extensions:
            X509v3 Basic Constraints: 
                CA:FALSE
            X509v3 Subject Key Identifier: 
                76:D8:66:C5:5E:79:7B:53:31:C3:21:DE:2F:A9:3A:4E:C4:82:31:CF
            X509v3 Authority Key Identifier: 
                keyid:D4:6B:89:5D:49:83:11:FB:F3:CC:33:DA:C5:34:50:DD:73:7C:A5:47
                DirName:/CN=Easy-RSA CA
                serial:C5:E3:8D:15:0A:1B:B7:4A

            X509v3 Extended Key Usage: 
                TLS Web Server Authentication
            X509v3 Key Usage: 
                Digital Signature, Key Encipherment
    Signature Algorithm: sha256WithRSAEncryption
         9d:02:c2:64:61:ae:1d:51:fa:28:59:fa:8f:2e:08:76:6a:12:
         d0:6c:29:0d:81:bc:86:0d:84:95:5f:07:b9:47:d3:ab:35:15:
         1f:d9:7f:7b:33:09:7e:ff:98:34:a8:33:e1:20:94:fe:b8:45:
         93:48:2f:dd:cb:0d:f3:bc:9b:b5:31:a1:99:e9:5e:5f:8b:8d:
         c9:39:61:5d:46:2d:e6:dd:0b:4a:a4:b9:02:22:5e:97:fe:a5:
         4b:d1:2a:3f:8c:59:ba:cd:af:4e:1e:68:de:6e:28:4d:29:f4:
         1a:40:4a:e4:a1:cb:fe:ba:20:f4:60:cc:57:42:8c:cd:a8:e8:
         a3:32:8c:e5:5c:38:51:2f:6e:9e:81:23:cc:00:f9:7e:bf:a5:
         a8:d5:a1:5d:28:b4:3b:cd:64:78:fb:c6:b0:d0:be:15:2d:38:
         d9:ae:3d:47:f7:b6:24:df:b7:3b:e1:d0:f1:26:3f:99:a9:72:
         ac:19:56:e6:a0:cb:f4:27:83:fb:bc:79:5b:63:f7:16:24:a4:
         5a:c7:75:11:97:69:d4:c0:8f:48:ef:bc:18:a8:4f:94:95:f7:
         0e:b5:af:cf:b4:91:ce:cf:bc:40:6b:2a:31:34:66:fc:5f:02:
         8b:58:b5:a0:68:86:90:9f:01:25:e4:73:dd:9b:0c:af:64:1e:
         e8:12:b2:6a
-----BEGIN CERTIFICATE-----
MIIDOjCCAiKgAwIBAgIBAjANBgkqhkiG9w0BAQsFADAWMRQwEgYDVQQDEwtFYXN5
LVJTQSBDQTAeFw0xNDA1MjExNTIzMThaFw0yNDA1MTgxNTIzMThaMBExDzANBgNV
BAMTBnNlcnZlcjCCASIwDQYJKoZIhvcNAQEBBQADggEPADCCAQoCggEBAMH7krX0
pwSgzJSdMYNrmLocPnxOt+MwkRbNWfZUOE2dirwCMBnAQcJNJdXZRolxIfvldH9w
ttP99JXwMonLSlQAStH2kVo85CEMxHYYRRBBKqqaDQtrAeJQP/lz1K8gAkPAbbnJ
uODJb4YNGnziXU5OAJbunTGSNlrxvaI29T1LksABIG7ODM1dARYIH+QozF0yfNhe
uzjBD5S35RJrc8CgLfP1lHSLJHgcxVPwonGngEIdo/5/WMi6YkoIyhtzakYE9i+u
PzduPABKz7V4nzvbBmi2VMYPMJRTvg1RTOvjorBGRSmwkujLKhkW5qEA00sqJTJD
H5ZtBSyLgQf5izsCAwEAAaOBlzCBlDAJBgNVHRMEAjAAMB0GA1UdDgQWBBR22GbF
Xnl7UzHDId4vqTpOxIIxzzBGBgNVHSMEPzA9gBTUa4ldSYMR+/PMM9rFNFDdc3yl
R6EapBgwFjEUMBIGA1UEAxMLRWFzeS1SU0EgQ0GCCQDF440VChu3SjATBgNVHSUE
DDAKBggrBgEFBQcDATALBgNVHQ8EBAMCBaAwDQYJKoZIhvcNAQELBQADggEBAJ0C
wmRhrh1R+ihZ+o8uCHZqEtBsKQ2BvIYNhJVfB7lH06s1FR/Zf3szCX7/mDSoM+Eg
lP64RZNIL93LDfO8m7UxoZnpXl+Ljck5YV1GLebdC0qkuQIiXpf+pUvRKj+MWbrN
r04eaN5uKE0p9BpASuShy/66IPRgzFdCjM2o6KMyjOVcOFEvbp6BI8wA+X6/pajV
oV0otDvNZHj7xrDQvhUtONmuPUf3tiTftzvh0PEmP5mpcqwZVuagy/Qng/u8eVtj
9xYkpFrHdRGXadTAj0jvvBioT5SV9w61r8+0kc7PvEBrKjE0ZvxfAotYtaBohpCf
ASXkc92bDK9kHugSsmo=
-----END CERTIFICATE-----
